target datalayout = "e-m:e-p270:32:32-p271:32:32-p272:64:64-i64:64-i128:128-f80:128-n8:16:32:64-S128"
target triple = "x86_64-pc-linux-gnu"

%struct.Dec_Edge_t_ = type { i32 }
%struct.Dec_Man_t_ = type { ptr, ptr, ptr, ptr, ptr, ptr, ptr }
%struct.Dec_Graph_t_ = type { i32, i32, i32, i32, ptr, %struct.Dec_Edge_t_ }
%struct.Dec_Node_t_ = type { %struct.Dec_Edge_t_, %struct.Dec_Edge_t_, %union.anon, i32 }
%union.anon = type { ptr }

; Function Attrs: inlinehint nounwind uwtable
define internal i32 @Dec_EdgeCreate(i32 noundef %0, i32 noundef %1) #3 {
  %3 = alloca %struct.Dec_Edge_t_, align 4
  %4 = alloca i32, align 4
  %5 = alloca i32, align 4
  store i32 %0, ptr %4, align 4, !tbaa !22
  store i32 %1, ptr %5, align 4, !tbaa !22
  store i32 0, ptr %3, align 4
  %6 = load i32, ptr %5, align 4, !tbaa !22
  %7 = load i32, ptr %3, align 4
  %8 = and i32 %6, 1
  %9 = and i32 %7, -2
  %10 = or i32 %9, %8
  store i32 %10, ptr %3, align 4
  %11 = load i32, ptr %4, align 4, !tbaa !22
  %12 = load i32, ptr %3, align 4
  %13 = and i32 %11, 1073741823
  %14 = shl i32 %13, 1
  %15 = and i32 %12, -2147483647
  %16 = or i32 %15, %14
  store i32 %16, ptr %3, align 4
  %17 = getelementptr inbounds nuw %struct.Dec_Edge_t_, ptr %3, i32 0, i32 0
  %18 = load i32, ptr %17, align 4
  ret i32 %18
}

; Function Attrs: inlinehint nounwind uwtable
define internal ptr @Dec_GraphAppendNode(ptr noundef %0) #3 {
  %2 = alloca ptr, align 8
  %3 = alloca ptr, align 8
  store ptr %0, ptr %2, align 8, !tbaa !10
  call void @llvm.lifetime.start.p0(i64 8, ptr %3) #8
  %4 = load ptr, ptr %2, align 8, !tbaa !10
  %5 = getelementptr inbounds nuw %struct.Dec_Graph_t_, ptr %4, i32 0, i32 2
  %6 = load i32, ptr %5, align 8, !tbaa !42
  %7 = load ptr, ptr %2, align 8, !tbaa !10
  %8 = getelementptr inbounds nuw %struct.Dec_Graph_t_, ptr %7, i32 0, i32 3
  %9 = load i32, ptr %8, align 4, !tbaa !43
  %10 = icmp eq i32 %6, %9
  br i1 %10, label %11, label %45

11:                                               ; preds = %1
  %12 = load ptr, ptr %2, align 8, !tbaa !10
  %13 = getelementptr inbounds nuw %struct.Dec_Graph_t_, ptr %12, i32 0, i32 4
  %14 = load ptr, ptr %13, align 8, !tbaa !44
  %15 = icmp ne ptr %14, null
  br i1 %15, label %16, label %27

16:                                               ; preds = %11
  %17 = load ptr, ptr %2, align 8, !tbaa !10
  %18 = getelementptr inbounds nuw %struct.Dec_Graph_t_, ptr %17, i32 0, i32 4
  %19 = load ptr, ptr %18, align 8, !tbaa !44
  %20 = load ptr, ptr %2, align 8, !tbaa !10
  %21 = getelementptr inbounds nuw %struct.Dec_Graph_t_, ptr %20, i32 0, i32 3
  %22 = load i32, ptr %21, align 4, !tbaa !43
  %23 = mul nsw i32 2, %22
  %24 = sext i32 %23 to i64
  %25 = mul i64 24, %24
  %26 = call ptr @realloc(ptr noundef %19, i64 noundef %25) #10
  br label %35

27:                                               ; preds = %11
  %28 = load ptr, ptr %2, align 8, !tbaa !10
  %29 = getelementptr inbounds nuw %struct.Dec_Graph_t_, ptr %28, i32 0, i32 3
  %30 = load i32, ptr %29, align 4, !tbaa !43
  %31 = mul nsw i32 2, %30
  %32 = sext i32 %31 to i64
  %33 = mul i64 24, %32
  %34 = call noalias ptr @malloc(i64 noundef %33) #9
  br label %35

35:                                               ; preds = %27, %16
  %36 = phi ptr [ %26, %16 ], [ %34, %27 ]
  %37 = load ptr, ptr %2, align 8, !tbaa !10
  %38 = getelementptr inbounds nuw %struct.Dec_Graph_t_, ptr %37, i32 0, i32 4
  store ptr %36, ptr %38, align 8, !tbaa !44
  %39 = load ptr, ptr %2, align 8, !tbaa !10
  %40 = getelementptr inbounds nuw %struct.Dec_Graph_t_, ptr %39, i32 0, i32 3
  %41 = load i32, ptr %40, align 4, !tbaa !43
  %42 = mul nsw i32 2, %41
  %43 = load ptr, ptr %2, align 8, !tbaa !10
  %44 = getelementptr inbounds nuw %struct.Dec_Graph_t_, ptr %43, i32 0, i32 3
  store i32 %42, ptr %44, align 4, !tbaa !43
  br label %45

45:                                               ; preds = %35, %1
  %46 = load ptr, ptr %2, align 8, !tbaa !10
  %47 = getelementptr inbounds nuw %struct.Dec_Graph_t_, ptr %46, i32 0, i32 4
  %48 = load ptr, ptr %47, align 8, !tbaa !44
  %49 = load ptr, ptr %2, align 8, !tbaa !10
  %50 = getelementptr inbounds nuw %struct.Dec_Graph_t_, ptr %49, i32 0, i32 2
  %51 = load i32, ptr %50, align 8, !tbaa !42
  %52 = add nsw i32 %51, 1
  store i32 %52, ptr %50, align 8, !tbaa !42
  %53 = sext i32 %51 to i64
  %54 = getelementptr inbounds %struct.Dec_Node_t_, ptr %48, i64 %53
  store ptr %54, ptr %3, align 8, !tbaa !57
  %55 = load ptr, ptr %3, align 8, !tbaa !57
  call void @llvm.memset.p0.i64(ptr align 8 %55, i8 0, i64 24, i1 false)
  %56 = load ptr, ptr %3, align 8, !tbaa !57
  call void @llvm.lifetime.end.p0(i64 8, ptr %3) #8
  ret ptr %56
}

; Function Attrs: inlinehint nounwind uwtable
define internal i32 @Dec_GraphAddNodeOr(ptr noundef %0, i32 %1, i32 %2) #3 {
  %4 = alloca %struct.Dec_Edge_t_, align 4
  %5 = alloca %struct.Dec_Edge_t_, align 4
  %6 = alloca %struct.Dec_Edge_t_, align 4
  %7 = alloca ptr, align 8
  %8 = alloca ptr, align 8
  %9 = getelementptr inbounds nuw %struct.Dec_Edge_t_, ptr %5, i32 0, i32 0
  store i32 %1, ptr %9, align 4
  %10 = getelementptr inbounds nuw %struct.Dec_Edge_t_, ptr %6, i32 0, i32 0
  store i32 %2, ptr %10, align 4
  store ptr %0, ptr %7, align 8, !tbaa !10
  call void @llvm.lifetime.start.p0(i64 8, ptr %8) #8
  %11 = load ptr, ptr %7, align 8, !tbaa !10
  %12 = call ptr @Dec_GraphAppendNode(ptr noundef %11)
  store ptr %12, ptr %8, align 8, !tbaa !57
  %13 = load ptr, ptr %8, align 8, !tbaa !57
  %14 = getelementptr inbounds nuw %struct.Dec_Node_t_, ptr %13, i32 0, i32 0
  call void @llvm.memcpy.p0.p0.i64(ptr align 8 %14, ptr align 4 %5, i64 4, i1 false), !tbaa.struct !12
  %15 = load ptr, ptr %8, align 8, !tbaa !57
  %16 = getelementptr inbounds nuw %struct.Dec_Node_t_, ptr %15, i32 0, i32 1
  call void @llvm.memcpy.p0.p0.i64(ptr align 4 %16, ptr align 4 %6, i64 4, i1 false), !tbaa.struct !12
  %17 = load i32, ptr %5, align 4
  %18 = and i32 %17, 1
  %19 = load ptr, ptr %8, align 8, !tbaa !57
  %20 = getelementptr inbounds nuw %struct.Dec_Node_t_, ptr %19, i32 0, i32 3
  %21 = load i32, ptr %20, align 8
  %22 = and i32 %18, 1
  %23 = shl i32 %22, 15
  %24 = and i32 %21, -32769
  %25 = or i32 %24, %23
  store i32 %25, ptr %20, align 8
  %26 = load i32, ptr %6, align 4
  %27 = and i32 %26, 1
  %28 = load ptr, ptr %8, align 8, !tbaa !57
  %29 = getelementptr inbounds nuw %struct.Dec_Node_t_, ptr %28, i32 0, i32 3
  %30 = load i32, ptr %29, align 8
  %31 = and i32 %27, 1
  %32 = shl i32 %31, 16
  %33 = and i32 %30, -65537
  %34 = or i32 %33, %32
  store i32 %34, ptr %29, align 8
  %35 = load ptr, ptr %8, align 8, !tbaa !57
  %36 = getelementptr inbounds nuw %struct.Dec_Node_t_, ptr %35, i32 0, i32 3
  %37 = load i32, ptr %36, align 8
  %38 = and i32 %37, -16385
  %39 = or i32 %38, 16384
  store i32 %39, ptr %36, align 8
  %40 = load ptr, ptr %8, align 8, !tbaa !57
  %41 = getelementptr inbounds nuw %struct.Dec_Node_t_, ptr %40, i32 0, i32 0
  %42 = load i32, ptr %41, align 8
  %43 = and i32 %42, 1
  %44 = icmp ne i32 %43, 0
  %45 = xor i1 %44, true
  %46 = zext i1 %45 to i32
  %47 = load ptr, ptr %8, align 8, !tbaa !57
  %48 = getelementptr inbounds nuw %struct.Dec_Node_t_, ptr %47, i32 0, i32 0
  %49 = load i32, ptr %48, align 8
  %50 = and i32 %46, 1
  %51 = and i32 %49, -2
  %52 = or i32 %51, %50
  store i32 %52, ptr %48, align 8
  %53 = load ptr, ptr %8, align 8, !tbaa !57
  %54 = getelementptr inbounds nuw %struct.Dec_Node_t_, ptr %53, i32 0, i32 1
  %55 = load i32, ptr %54, align 4
  %56 = and i32 %55, 1
  %57 = icmp ne i32 %56, 0
  %58 = xor i1 %57, true
  %59 = zext i1 %58 to i32
  %60 = load ptr, ptr %8, align 8, !tbaa !57
  %61 = getelementptr inbounds nuw %struct.Dec_Node_t_, ptr %60, i32 0, i32 1
  %62 = load i32, ptr %61, align 4
  %63 = and i32 %59, 1
  %64 = and i32 %62, -2
  %65 = or i32 %64, %63
  store i32 %65, ptr %61, align 4
  %66 = load ptr, ptr %7, align 8, !tbaa !10
  %67 = getelementptr inbounds nuw %struct.Dec_Graph_t_, ptr %66, i32 0, i32 2
  %68 = load i32, ptr %67, align 8, !tbaa !42
  %69 = sub nsw i32 %68, 1
  %70 = call i32 @Dec_EdgeCreate(i32 noundef %69, i32 noundef 1)
  %71 = getelementptr inbounds nuw %struct.Dec_Edge_t_, ptr %4, i32 0, i32 0
  store i32 %70, ptr %71, align 4
  call void @llvm.lifetime.end.p0(i64 8, ptr %8) #8
  %72 = getelementptr inbounds nuw %struct.Dec_Edge_t_, ptr %4, i32 0, i32 0
  %73 = load i32, ptr %72, align 4
  ret i32 %73
}

; Function Attrs: inlinehint nounwind uwtable
define internal i32 @Dec_GraphAddNodeAnd(ptr noundef %0, i32 %1, i32 %2) #3 {
  %4 = alloca %struct.Dec_Edge_t_, align 4
  %5 = alloca %struct.Dec_Edge_t_, align 4
  %6 = alloca %struct.Dec_Edge_t_, align 4
  %7 = alloca ptr, align 8
  %8 = alloca ptr, align 8
  %9 = getelementptr inbounds nuw %struct.Dec_Edge_t_, ptr %5, i32 0, i32 0
  store i32 %1, ptr %9, align 4
  %10 = getelementptr inbounds nuw %struct.Dec_Edge_t_, ptr %6, i32 0, i32 0
  store i32 %2, ptr %10, align 4
  store ptr %0, ptr %7, align 8, !tbaa !10
  call void @llvm.lifetime.start.p0(i64 8, ptr %8) #8
  %11 = load ptr, ptr %7, align 8, !tbaa !10
  %12 = call ptr @Dec_GraphAppendNode(ptr noundef %11)
  store ptr %12, ptr %8, align 8, !tbaa !57
  %13 = load ptr, ptr %8, align 8, !tbaa !57
  %14 = getelementptr inbounds nuw %struct.Dec_Node_t_, ptr %13, i32 0, i32 0
  call void @llvm.memcpy.p0.p0.i64(ptr align 8 %14, ptr align 4 %5, i64 4, i1 false), !tbaa.struct !12
  %15 = load ptr, ptr %8, align 8, !tbaa !57
  %16 = getelementptr inbounds nuw %struct.Dec_Node_t_, ptr %15, i32 0, i32 1
  call void @llvm.memcpy.p0.p0.i64(ptr align 4 %16, ptr align 4 %6, i64 4, i1 false), !tbaa.struct !12
  %17 = load i32, ptr %5, align 4
  %18 = and i32 %17, 1
  %19 = load ptr, ptr %8, align 8, !tbaa !57
  %20 = getelementptr inbounds nuw %struct.Dec_Node_t_, ptr %19, i32 0, i32 3
  %21 = load i32, ptr %20, align 8
  %22 = and i32 %18, 1
  %23 = shl i32 %22, 15
  %24 = and i32 %21, -32769
  %25 = or i32 %24, %23
  store i32 %25, ptr %20, align 8
  %26 = load i32, ptr %6, align 4
  %27 = and i32 %26, 1
  %28 = load ptr, ptr %8, align 8, !tbaa !57
  %29 = getelementptr inbounds nuw %struct.Dec_Node_t_, ptr %28, i32 0, i32 3
  %30 = load i32, ptr %29, align 8
  %31 = and i32 %27, 1
  %32 = shl i32 %31, 16
  %33 = and i32 %30, -65537
  %34 = or i32 %33, %32
  store i32 %34, ptr %29, align 8
  %35 = load ptr, ptr %7, align 8, !tbaa !10
  %36 = getelementptr inbounds nuw %struct.Dec_Graph_t_, ptr %35, i32 0, i32 2
  %37 = load i32, ptr %36, align 8, !tbaa !42
  %38 = sub nsw i32 %37, 1
  %39 = call i32 @Dec_EdgeCreate(i32 noundef %38, i32 noundef 0)
  %40 = getelementptr inbounds nuw %struct.Dec_Edge_t_, ptr %4, i32 0, i32 0
  store i32 %39, ptr %40, align 4
  call void @llvm.lifetime.end.p0(i64 8, ptr %8) #8
  %41 = getelementptr inbounds nuw %struct.Dec_Edge_t_, ptr %4, i32 0, i32 0
  %42 = load i32, ptr %41, align 4
  ret i32 %42
}

; Function Attrs: nounwind uwtable
define internal i32 @Dec_FactorLF_rec(ptr noundef %0, ptr noundef %1, ptr noundef %2) #0 {
  %4 = alloca %struct.Dec_Edge_t_, align 4
  %5 = alloca ptr, align 8
  %6 = alloca ptr, align 8
  %7 = alloca ptr, align 8
  %8 = alloca ptr, align 8
  %9 = alloca ptr, align 8
  %10 = alloca ptr, align 8
  %11 = alloca ptr, align 8
  %12 = alloca ptr, align 8
  %13 = alloca %struct.Dec_Edge_t_, align 4
  %14 = alloca %struct.Dec_Edge_t_, align 4
  %15 = alloca %struct.Dec_Edge_t_, align 4
  %16 = alloca %struct.Dec_Edge_t_, align 4
  %17 = alloca %struct.Dec_Edge_t_, align 4
  %18 = alloca %struct.Dec_Edge_t_, align 4
  %19 = alloca %struct.Dec_Edge_t_, align 4
  %20 = alloca i32, align 4
  %21 = alloca %struct.Dec_Edge_t_, align 4
  store ptr %0, ptr %5, align 8, !tbaa !10
  store ptr %1, ptr %6, align 8, !tbaa !8
  store ptr %2, ptr %7, align 8, !tbaa !8
  call void @llvm.lifetime.start.p0(i64 8, ptr %8) #8
  %22 = call ptr (...) @Abc_FrameReadManDec()
  store ptr %22, ptr %8, align 8, !tbaa !14
  call void @llvm.lifetime.start.p0(i64 8, ptr %9) #8
  %23 = load ptr, ptr %8, align 8, !tbaa !14
  %24 = getelementptr inbounds nuw %struct.Dec_Man_t_, ptr %23, i32 0, i32 2
  %25 = load ptr, ptr %24, align 8, !tbaa !48
  store ptr %25, ptr %9, align 8, !tbaa !47
  call void @llvm.lifetime.start.p0(i64 8, ptr %10) #8
  call void @llvm.lifetime.start.p0(i64 8, ptr %11) #8
  call void @llvm.lifetime.start.p0(i64 8, ptr %12) #8
  call void @llvm.lifetime.start.p0(i64 4, ptr %13) #8
  call void @llvm.lifetime.start.p0(i64 4, ptr %14) #8
  call void @llvm.lifetime.start.p0(i64 4, ptr %15) #8
  call void @llvm.lifetime.start.p0(i64 4, ptr %16) #8
  %26 = load ptr, ptr %6, align 8, !tbaa !8
  %27 = load ptr, ptr %7, align 8, !tbaa !8
  %28 = call ptr @Mvc_CoverBestLiteralCover(ptr noundef %26, ptr noundef %27)
  store ptr %28, ptr %10, align 8, !tbaa !8
  %29 = load ptr, ptr %6, align 8, !tbaa !8
  %30 = load ptr, ptr %10, align 8, !tbaa !8
  call void @Mvc_CoverDivideByLiteral(ptr noundef %29, ptr noundef %30, ptr noundef %11, ptr noundef %12)
  call void @llvm.lifetime.start.p0(i64 4, ptr %17) #8
  %31 = load ptr, ptr %5, align 8, !tbaa !10
  %32 = load ptr, ptr %10, align 8, !tbaa !8
  %33 = load ptr, ptr %10, align 8, !tbaa !8
  %34 = call ptr @Mvc_CoverReadCubeHead(ptr noundef %33)
  %35 = load ptr, ptr %9, align 8, !tbaa !47
  %36 = call i32 @Dec_FactorTrivialCube(ptr noundef %31, ptr noundef %32, ptr noundef %34, ptr noundef %35)
  %37 = getelementptr inbounds nuw %struct.Dec_Edge_t_, ptr %17, i32 0, i32 0
  store i32 %36, ptr %37, align 4
  call void @llvm.memcpy.p0.p0.i64(ptr align 4 %13, ptr align 4 %17, i64 4, i1 false), !tbaa.struct !12
  call void @llvm.lifetime.end.p0(i64 4, ptr %17) #8
  %38 = load ptr, ptr %10, align 8, !tbaa !8
  call void @Mvc_CoverFree(ptr noundef %38)
  call void @llvm.lifetime.start.p0(i64 4, ptr %18) #8
  %39 = load ptr, ptr %5, align 8, !tbaa !10
  %40 = load ptr, ptr %11, align 8, !tbaa !8
  %41 = call i32 @Dec_Factor_rec(ptr noundef %39, ptr noundef %40)
  %42 = getelementptr inbounds nuw %struct.Dec_Edge_t_, ptr %18, i32 0, i32 0
  store i32 %41, ptr %42, align 4
  call void @llvm.memcpy.p0.p0.i64(ptr align 4 %14, ptr align 4 %18, i64 4, i1 false), !tbaa.struct !12
  call void @llvm.lifetime.end.p0(i64 4, ptr %18) #8
  %43 = load ptr, ptr %11, align 8, !tbaa !8
  call void @Mvc_CoverFree(ptr noundef %43)
  call void @llvm.lifetime.start.p0(i64 4, ptr %19) #8
  %44 = load ptr, ptr %5, align 8, !tbaa !10
  %45 = getelementptr inbounds nuw %struct.Dec_Edge_t_, ptr %13, i32 0, i32 0
  %46 = load i32, ptr %45, align 4
  %47 = getelementptr inbounds nuw %struct.Dec_Edge_t_, ptr %14, i32 0, i32 0
  %48 = load i32, ptr %47, align 4
  %49 = call i32 @Dec_GraphAddNodeAnd(ptr noundef %44, i32 %46, i32 %48)
  %50 = getelementptr inbounds nuw %struct.Dec_Edge_t_, ptr %19, i32 0, i32 0
  store i32 %49, ptr %50, align 4
  call void @llvm.memcpy.p0.p0.i64(ptr align 4 %16, ptr align 4 %19, i64 4, i1 false), !tbaa.struct !12
  call void @llvm.lifetime.end.p0(i64 4, ptr %19) #8
  %51 = load ptr, ptr %12, align 8, !tbaa !8
  %52 = call i32 @Mvc_CoverReadCubeNum(ptr noundef %51)
  %53 = icmp eq i32 %52, 0
  br i1 %53, label %54, label %56

54:                                               ; preds = %3
  %55 = load ptr, ptr %12, align 8, !tbaa !8
  call void @Mvc_CoverFree(ptr noundef %55)
  call void @llvm.memcpy.p0.p0.i64(ptr align 4 %4, ptr align 4 %16, i64 4, i1 false), !tbaa.struct !12
  store i32 1, ptr %20, align 4
  br label %69

56:                                               ; preds = %3
  call void @llvm.lifetime.start.p0(i64 4, ptr %21) #8
  %57 = load ptr, ptr %5, align 8, !tbaa !10
  %58 = load ptr, ptr %12, align 8, !tbaa !8
  %59 = call i32 @Dec_Factor_rec(ptr noundef %57, ptr noundef %58)
  %60 = getelementptr inbounds nuw %struct.Dec_Edge_t_, ptr %21, i32 0, i32 0
  store i32 %59, ptr %60, align 4
  call void @llvm.memcpy.p0.p0.i64(ptr align 4 %15, ptr align 4 %21, i64 4, i1 false), !tbaa.struct !12
  call void @llvm.lifetime.end.p0(i64 4, ptr %21) #8
  %61 = load ptr, ptr %12, align 8, !tbaa !8
  call void @Mvc_CoverFree(ptr noundef %61)
  %62 = load ptr, ptr %5, align 8, !tbaa !10
  %63 = getelementptr inbounds nuw %struct.Dec_Edge_t_, ptr %16, i32 0, i32 0
  %64 = load i32, ptr %63, align 4
  %65 = getelementptr inbounds nuw %struct.Dec_Edge_t_, ptr %15, i32 0, i32 0
  %66 = load i32, ptr %65, align 4
  %67 = call i32 @Dec_GraphAddNodeOr(ptr noundef %62, i32 %64, i32 %66)
  %68 = getelementptr inbounds nuw %struct.Dec_Edge_t_, ptr %4, i32 0, i32 0
  store i32 %67, ptr %68, align 4
  store i32 1, ptr %20, align 4
  br label %69

69:                                               ; preds = %56, %54
  call void @llvm.lifetime.end.p0(i64 4, ptr %16) #8
  call void @llvm.lifetime.end.p0(i64 4, ptr %15) #8
  call void @llvm.lifetime.end.p0(i64 4, ptr %14) #8
  call void @llvm.lifetime.end.p0(i64 4, ptr %13) #8
  call void @llvm.lifetime.end.p0(i64 8, ptr %12) #8
  call void @llvm.lifetime.end.p0(i64 8, ptr %11) #8
  call void @llvm.lifetime.end.p0(i64 8, ptr %10) #8
  call void @llvm.lifetime.end.p0(i64 8, ptr %9) #8
  call void @llvm.lifetime.end.p0(i64 8, ptr %8) #8
  %70 = getelementptr inbounds nuw %struct.Dec_Edge_t_, ptr %4, i32 0, i32 0
  %71 = load i32, ptr %70, align 4
  ret i32 %71
}