; Function Attrs: nounwind uwtable
define internal fastcc range(i32 0, -2147483648) i32 @Dec_FactorLF_rec(ptr noundef %0, ptr noundef %1, ptr noundef %2) unnamed_addr #0 {
  %4 = alloca ptr, align 8
  %5 = alloca ptr, align 8
  %6 = tail call ptr (...) @Abc_FrameReadManDec() #7
  %7 = getelementptr inbounds nuw i8, ptr %6, i64 16
  %8 = load ptr, ptr %7, align 8, !tbaa !35
  call void @llvm.lifetime.start.p0(i64 8, ptr nonnull %4) #7
  call void @llvm.lifetime.start.p0(i64 8, ptr nonnull %5) #7
  %9 = tail call ptr @Mvc_CoverBestLiteralCover(ptr noundef %1, ptr noundef %2) #7
  call void @Mvc_CoverDivideByLiteral(ptr noundef %1, ptr noundef %9, ptr noundef nonnull %4, ptr noundef nonnull %5) #7
  %10 = call ptr @Mvc_CoverReadCubeHead(ptr noundef %9) #7
  %11 = call fastcc i32 @Dec_FactorTrivialCube(ptr noundef %0, ptr noundef %9, ptr noundef %10, ptr noundef %8)
  call void @Mvc_CoverFree(ptr noundef %9) #7
  %12 = load ptr, ptr %4, align 8, !tbaa !32
  %13 = call fastcc i32 @Dec_Factor_rec(ptr noundef %0, ptr noundef %12)
  %14 = load ptr, ptr %4, align 8, !tbaa !32
  call void @Mvc_CoverFree(ptr noundef %14) #7
  %15 = getelementptr inbounds nuw i8, ptr %0, i64 8
  %16 = load i32, ptr %15, align 8, !tbaa !29
  %17 = getelementptr inbounds nuw i8, ptr %0, i64 12
  %18 = load i32, ptr %17, align 4, !tbaa !30
  %19 = icmp eq i32 %16, %18
  %20 = getelementptr inbounds nuw i8, ptr %0, i64 16
  %21 = load ptr, ptr %20, align 8, !tbaa !31
  br i1 %19, label %22, label %Dec_GraphAddNodeAnd.exit

22:                                               ; preds = %3
  %.not.i.i = icmp eq ptr %21, null
  %23 = shl nsw i32 %16, 1
  %24 = sext i32 %23 to i64
  %25 = mul nsw i64 %24, 24
  br i1 %.not.i.i, label %28, label %26

26:                                               ; preds = %22
  %27 = call ptr @realloc(ptr noundef nonnull %21, i64 noundef %25) #9
  %.pre.i.i = load i32, ptr %17, align 4, !tbaa !30
  %.pre15.pre.i.i = load i32, ptr %15, align 8, !tbaa !29
  %.pre17.i.i = shl nsw i32 %.pre.i.i, 1
  br label %30

28:                                               ; preds = %22
  %29 = call noalias ptr @malloc(i64 noundef %25) #8
  br label %30

30:                                               ; preds = %28, %26
  %.pre-phi.i.i = phi i32 [ %23, %28 ], [ %.pre17.i.i, %26 ]
  %.pre15.i.i = phi i32 [ %16, %28 ], [ %.pre15.pre.i.i, %26 ]
  %31 = phi ptr [ %29, %28 ], [ %27, %26 ]
  store ptr %31, ptr %20, align 8, !tbaa !31
  store i32 %.pre-phi.i.i, ptr %17, align 4, !tbaa !30
  br label %Dec_GraphAddNodeAnd.exit

Dec_GraphAddNodeAnd.exit:                         ; preds = %3, %30
  %32 = phi i32 [ %.pre15.i.i, %30 ], [ %16, %3 ]
  %33 = phi ptr [ %31, %30 ], [ %21, %3 ]
  %34 = add nsw i32 %32, 1
  store i32 %34, ptr %15, align 8, !tbaa !29
  %35 = sext i32 %32 to i64
  %36 = getelementptr inbounds %struct.Dec_Node_t_, ptr %33, i64 %35
  %37 = getelementptr inbounds nuw i8, ptr %36, i64 8
  call void @llvm.memset.p0.i64(ptr noundef nonnull align 8 dereferenceable(24) %37, i8 0, i64 16, i1 false)
  store i32 %11, ptr %36, align 8, !tbaa !16
  %38 = getelementptr inbounds nuw i8, ptr %36, i64 4
  store i32 %13, ptr %38, align 4, !tbaa !16
  %39 = getelementptr inbounds nuw i8, ptr %36, i64 16
  %40 = shl i32 %11, 15
  %41 = and i32 %40, 32768
  %42 = shl i32 %13, 16
  %43 = and i32 %42, 65536
  %44 = or disjoint i32 %43, %41
  store i32 %44, ptr %39, align 8
  %45 = load i32, ptr %15, align 8, !tbaa !29
  %46 = shl i32 %45, 1
  %47 = add i32 %46, 2147483646
  %48 = and i32 %47, 2147483646
  %49 = load ptr, ptr %5, align 8, !tbaa !32
  %50 = call i32 @Mvc_CoverReadCubeNum(ptr noundef %49) #7
  %51 = icmp eq i32 %50, 0
  %52 = load ptr, ptr %5, align 8, !tbaa !32
  br i1 %51, label %53, label %54

53:                                               ; preds = %Dec_GraphAddNodeAnd.exit
  call void @Mvc_CoverFree(ptr noundef %52) #7
  br label %89

54:                                               ; preds = %Dec_GraphAddNodeAnd.exit
  %55 = call fastcc i32 @Dec_Factor_rec(ptr noundef nonnull %0, ptr noundef %52)
  %56 = load ptr, ptr %5, align 8, !tbaa !32
  call void @Mvc_CoverFree(ptr noundef %56) #7
  %57 = load i32, ptr %15, align 8, !tbaa !29
  %58 = load i32, ptr %17, align 4, !tbaa !30
  %59 = icmp eq i32 %57, %58
  %60 = load ptr, ptr %20, align 8, !tbaa !31
  br i1 %59, label %61, label %Dec_GraphAddNodeOr.exit

61:                                               ; preds = %54
  %.not.i.i22 = icmp eq ptr %60, null
  %62 = shl nsw i32 %57, 1
  %63 = sext i32 %62 to i64
  %64 = mul nsw i64 %63, 24
  br i1 %.not.i.i22, label %67, label %65

65:                                               ; preds = %61
  %66 = call ptr @realloc(ptr noundef nonnull %60, i64 noundef %64) #9
  %.pre.i.i23 = load i32, ptr %17, align 4, !tbaa !30
  %.pre15.pre.i.i24 = load i32, ptr %15, align 8, !tbaa !29
  %.pre17.i.i25 = shl nsw i32 %.pre.i.i23, 1
  br label %69

67:                                               ; preds = %61
  %68 = call noalias ptr @malloc(i64 noundef %64) #8
  br label %69

69:                                               ; preds = %67, %65
  %.pre-phi.i.i26 = phi i32 [ %62, %67 ], [ %.pre17.i.i25, %65 ]
  %.pre15.i.i27 = phi i32 [ %57, %67 ], [ %.pre15.pre.i.i24, %65 ]
  %70 = phi ptr [ %68, %67 ], [ %66, %65 ]
  store ptr %70, ptr %20, align 8, !tbaa !31
  store i32 %.pre-phi.i.i26, ptr %17, align 4, !tbaa !30
  br label %Dec_GraphAddNodeOr.exit

Dec_GraphAddNodeOr.exit:                          ; preds = %54, %69
  %71 = phi i32 [ %.pre15.i.i27, %69 ], [ %57, %54 ]
  %72 = phi ptr [ %70, %69 ], [ %60, %54 ]
  %73 = add nsw i32 %71, 1
  store i32 %73, ptr %15, align 8, !tbaa !29
  %74 = sext i32 %71 to i64
  %75 = getelementptr inbounds %struct.Dec_Node_t_, ptr %72, i64 %74
  %76 = getelementptr inbounds nuw i8, ptr %75, i64 8
  call void @llvm.memset.p0.i64(ptr noundef nonnull align 8 dereferenceable(24) %76, i8 0, i64 16, i1 false)
  %77 = getelementptr inbounds nuw i8, ptr %75, i64 4
  %78 = getelementptr inbounds nuw i8, ptr %75, i64 16
  %79 = shl i32 %55, 16
  %80 = and i32 %79, 65536
  %81 = or disjoint i32 %80, 16384
  store i32 %81, ptr %78, align 8
  %82 = or disjoint i32 %48, 1
  store i32 %82, ptr %75, align 8
  %83 = xor i32 %55, 1
  store i32 %83, ptr %77, align 4
  %84 = load i32, ptr %15, align 8, !tbaa !29
  %85 = shl i32 %84, 1
  %86 = add i32 %85, 2147483646
  %87 = and i32 %86, 2147483646
  %88 = or disjoint i32 %87, 1
  br label %89

89:                                               ; preds = %Dec_GraphAddNodeOr.exit, %53
  %.sroa.021.0 = phi i32 [ %48, %53 ], [ %88, %Dec_GraphAddNodeOr.exit ]
  call void @llvm.lifetime.end.p0(i64 8, ptr nonnull %5) #7
  call void @llvm.lifetime.end.p0(i64 8, ptr nonnull %4) #7
  ret i32 %.sroa.021.0
}